; Function Attrs: nofree norecurse nosync nounwind memory(readwrite, inaccessiblemem: none) uwtable
define hidden void @png_do_packswap(ptr nocapture noundef readonly %0, ptr noundef %1) local_unnamed_addr #4 {
  %3 = getelementptr inbounds i8, ptr %0, i64 17
  %4 = load i8, ptr %3, align 1
  %5 = icmp ult i8 %4, 8
  br i1 %5, label %6, label %.loopexit

6:                                                ; preds = %2
  %7 = getelementptr inbounds i8, ptr %0, i64 8
  %8 = load i64, ptr %7, align 8
  %9 = getelementptr inbounds i8, ptr %1, i64 %8
  switch i8 %4, label %.loopexit [
    i8 1, label %12
    i8 2, label %10
    i8 4, label %11
  ]

10:                                               ; preds = %6
  br label %12

11:                                               ; preds = %6
  br label %12

12:                                               ; preds = %6, %10, %11
  %.0 = phi ptr [ @twobppswaptable, %10 ], [ @fourbppswaptable, %11 ], [ @onebppswaptable, %6 ]
  %13 = icmp sgt i64 %8, 0
  br i1 %13, label %.lr.ph, label %.loopexit

.lr.ph:                                           ; preds = %12, %.lr.ph
  %.01315 = phi ptr [ %18, %.lr.ph ], [ %1, %12 ]
  %14 = load i8, ptr %.01315, align 1
  %15 = zext i8 %14 to i64
  %16 = getelementptr inbounds i8, ptr %.0, i64 %15
  %17 = load i8, ptr %16, align 1
  store i8 %17, ptr %.01315, align 1
  %18 = getelementptr inbounds i8, ptr %.01315, i64 1
  %19 = icmp ult ptr %18, %9
  br i1 %19, label %.lr.ph, label %.loopexit, !llvm.loop !14

.loopexit:                                        ; preds = %.lr.ph, %12, %6, %2
  ret void
}